; Function Attrs: mustprogress nofree norecurse nosync nounwind willreturn memory(argmem: readwrite) uwtable
define hidden void @_ZN6Assimp3FBX18FileGlobalSettingsC2ERKNS0_8DocumentESt10shared_ptrIKNS0_13PropertyTableEE(ptr nocapture noundef nonnull writeonly align 8 dereferenceable(24) %this, ptr noundef nonnull align 8 dereferenceable(336) %doc, ptr nocapture noundef %props) unnamed_addr #10 align 2 {
entry:
  %0 = load ptr, ptr %props, align 8
  store ptr %0, ptr %this, align 8
  %_M_refcount.i.i = getelementptr inbounds i8, ptr %this, i64 8
  store ptr null, ptr %_M_refcount.i.i, align 8
  %_M_refcount4.i.i = getelementptr inbounds i8, ptr %props, i64 8
  %1 = load ptr, ptr %_M_refcount4.i.i, align 8
  store ptr null, ptr %_M_refcount4.i.i, align 8
  store ptr %1, ptr %_M_refcount.i.i, align 8
  store ptr null, ptr %props, align 8
  %doc3 = getelementptr inbounds i8, ptr %this, i64 16
  store ptr %doc, ptr %doc3, align 8
  ret void
}